; Function Attrs: mustprogress uwtable
define void @_ZNK6casadi6MXNode11get_monitorERKNSt7__cxx1112basic_stringIcSt11char_traitsIcESaIcEEE(ptr dead_on_unwind noalias writable sret(%"class.casadi::MX") align 8 %0, ptr noundef nonnull align 8 dereferenceable(64) %1, ptr noundef nonnull align 8 dereferenceable(32) %2) local_unnamed_addr #3 align 2 personality ptr @__gxx_personality_v0 {
  %4 = alloca %"class.casadi::MX", align 8
  %5 = load ptr, ptr %1, align 8
  %6 = getelementptr inbounds i8, ptr %5, i64 352
  %7 = load ptr, ptr %6, align 8
  %8 = tail call noundef nonnull align 8 dereferenceable(8) ptr %7(ptr noundef nonnull align 8 dereferenceable(64) %1, i64 noundef 0)
  %9 = tail call noundef i64 @_ZNK6casadi8Sparsity3nnzEv(ptr noundef nonnull align 8 dereferenceable(8) %8)
  %10 = icmp eq i64 %9, 0
  br i1 %10, label %11, label %12

11:                                               ; preds = %3
  tail call void @_ZNK6casadi20SharedObjectInternal16shared_from_thisINS_2MXEEEKT_v(ptr dead_on_unwind writable sret(%"class.casadi::MX") align 8 %0, ptr noundef nonnull align 8 dereferenceable(24) %1)
  br label %22

12:                                               ; preds = %3
  %13 = tail call noalias noundef nonnull dereferenceable(96) ptr @_Znwm(i64 noundef 96) #35
  invoke void @_ZNK6casadi20SharedObjectInternal16shared_from_thisINS_2MXEEEKT_v(ptr dead_on_unwind nonnull writable sret(%"class.casadi::MX") align 8 %4, ptr noundef nonnull align 8 dereferenceable(24) %1)
          to label %14 unwind label %.thread

14:                                               ; preds = %12
  invoke void @_ZN6casadi7MonitorC1ERKNS_2MXERKNSt7__cxx1112basic_stringIcSt11char_traitsIcESaIcEEE(ptr noundef nonnull align 8 dereferenceable(96) %13, ptr noundef nonnull align 8 dereferenceable(8) %4, ptr noundef nonnull align 8 dereferenceable(32) %2)
          to label %16 unwind label %.thread11

.thread11:                                        ; preds = %14
  %15 = landingpad { ptr, i32 }
          cleanup
  call void @_ZN6casadi2MXD1Ev(ptr noundef nonnull align 8 dereferenceable(8) %4) #31
  br label %21

16:                                               ; preds = %14
  invoke void @_ZN6casadi2MX6createEPNS_6MXNodeE(ptr dead_on_unwind writable sret(%"class.casadi::MX") align 8 %0, ptr noundef nonnull %13)
          to label %17 unwind label %19

17:                                               ; preds = %16
  call void @_ZN6casadi2MXD1Ev(ptr noundef nonnull align 8 dereferenceable(8) %4) #31
  br label %22

.thread:                                          ; preds = %12
  %18 = landingpad { ptr, i32 }
          cleanup
  br label %21

19:                                               ; preds = %16
  %20 = landingpad { ptr, i32 }
          cleanup
  call void @_ZN6casadi2MXD1Ev(ptr noundef nonnull align 8 dereferenceable(8) %4) #31
  br label %23

21:                                               ; preds = %.thread11, %.thread
  %.pn10 = phi { ptr, i32 } [ %18, %.thread ], [ %15, %.thread11 ]
  call void @_ZdlPv(ptr noundef nonnull %13) #32
  br label %23

22:                                               ; preds = %17, %11
  ret void

23:                                               ; preds = %19, %21
  %.pn9 = phi { ptr, i32 } [ %20, %19 ], [ %.pn10, %21 ]
  resume { ptr, i32 } %.pn9
}